; ModuleID = '33/2742.c'
source_filename = "33/2742.c"
target datalayout = "e-m:e-p270:32:32-p271:32:32-p272:64:64-i64:64-f80:128-n8:16:32:64-S128"
target triple = "x86_64-pc-linux-gnu"

@.str = private unnamed_addr constant [3 x i8] c"%d\00", align 1
@.str.1 = private unnamed_addr constant [3 x i8] c"%s\00", align 1
@.str.2 = private unnamed_addr constant [3 x i8] c"%c\00", align 1
@.str.3 = private unnamed_addr constant [4 x i8] c"%c\0A\00", align 1

; Function Attrs: noinline nounwind uwtable
define dso_local i32 @main(i32 %0, i8** %1) #0 {
  %3 = alloca i32, align 4
  %4 = alloca i32, align 4
  %5 = alloca i8**, align 8
  %6 = alloca i32, align 4
  %7 = alloca i32, align 4
  %8 = alloca i32, align 4
  %9 = alloca i32, align 4
  %10 = alloca [256 x i8], align 16
  %11 = alloca i8, align 1
  store i32 0, i32* %3, align 4
  store i32 %0, i32* %4, align 4
  store i8** %1, i8*** %5, align 8
  %12 = call i32 (i8*, ...) @__isoc99_scanf(i8* getelementptr inbounds ([3 x i8], [3 x i8]* @.str, i64 0, i64 0), i32* %6)
  store i32 0, i32* %8, align 4
  br label %13

13:                                               ; preds = %77, %2
  %14 = load i32, i32* %8, align 4
  %15 = load i32, i32* %6, align 4
  %16 = icmp slt i32 %14, %15
  br i1 %16, label %17, label %80

17:                                               ; preds = %13
  %18 = getelementptr inbounds [256 x i8], [256 x i8]* %10, i64 0, i64 0
  %19 = call i32 (i8*, ...) @__isoc99_scanf(i8* getelementptr inbounds ([3 x i8], [3 x i8]* @.str.1, i64 0, i64 0), i8* %18)
  %20 = getelementptr inbounds [256 x i8], [256 x i8]* %10, i64 0, i64 0
  %21 = call i64 @strlen(i8* %20) #3
  %22 = trunc i64 %21 to i32
  store i32 %22, i32* %7, align 4
  store i32 0, i32* %9, align 4
  br label %23

23:                                               ; preds = %73, %17
  %24 = load i32, i32* %9, align 4
  %25 = load i32, i32* %7, align 4
  %26 = icmp slt i32 %24, %25
  br i1 %26, label %27, label %76

27:                                               ; preds = %23
  %28 = load i32, i32* %9, align 4
  %29 = sext i32 %28 to i64
  %30 = getelementptr inbounds [256 x i8], [256 x i8]* %10, i64 0, i64 %29
  %31 = load i8, i8* %30, align 1
  %32 = sext i8 %31 to i32
  %33 = icmp eq i32 %32, 65
  br i1 %33, label %34, label %35

34:                                               ; preds = %27
  store i8 84, i8* %11, align 1
  br label %35

35:                                               ; preds = %34, %27
  %36 = load i32, i32* %9, align 4
  %37 = sext i32 %36 to i64
  %38 = getelementptr inbounds [256 x i8], [256 x i8]* %10, i64 0, i64 %37
  %39 = load i8, i8* %38, align 1
  %40 = sext i8 %39 to i32
  %41 = icmp eq i32 %40, 84
  br i1 %41, label %42, label %43

42:                                               ; preds = %35
  store i8 65, i8* %11, align 1
  br label %43

43:                                               ; preds = %42, %35
  %44 = load i32, i32* %9, align 4
  %45 = sext i32 %44 to i64
  %46 = getelementptr inbounds [256 x i8], [256 x i8]* %10, i64 0, i64 %45
  %47 = load i8, i8* %46, align 1
  %48 = sext i8 %47 to i32
  %49 = icmp eq i32 %48, 67
  br i1 %49, label %50, label %51

50:                                               ; preds = %43
  store i8 71, i8* %11, align 1
  br label %51

51:                                               ; preds = %50, %43
  %52 = load i32, i32* %9, align 4
  %53 = sext i32 %52 to i64
  %54 = getelementptr inbounds [256 x i8], [256 x i8]* %10, i64 0, i64 %53
  %55 = load i8, i8* %54, align 1
  %56 = sext i8 %55 to i32
  %57 = icmp eq i32 %56, 71
  br i1 %57, label %58, label %59

58:                                               ; preds = %51
  store i8 67, i8* %11, align 1
  br label %59

59:                                               ; preds = %58, %51
  %60 = load i32, i32* %9, align 4
  %61 = load i32, i32* %7, align 4
  %62 = sub nsw i32 %61, 1
  %63 = icmp slt i32 %60, %62
  br i1 %63, label %64, label %68

64:                                               ; preds = %59
  %65 = load i8, i8* %11, align 1
  %66 = sext i8 %65 to i32
  %67 = call i32 (i8*, ...) @printf(i8* getelementptr inbounds ([3 x i8], [3 x i8]* @.str.2, i64 0, i64 0), i32 %66)
  br label %72

68:                                               ; preds = %59
  %69 = load i8, i8* %11, align 1
  %70 = sext i8 %69 to i32
  %71 = call i32 (i8*, ...) @printf(i8* getelementptr inbounds ([4 x i8], [4 x i8]* @.str.3, i64 0, i64 0), i32 %70)
  br label %72

72:                                               ; preds = %68, %64
  br label %73

73:                                               ; preds = %72
  %74 = load i32, i32* %9, align 4
  %75 = add nsw i32 %74, 1
  store i32 %75, i32* %9, align 4
  br label %23

76:                                               ; preds = %23
  br label %77

77:                                               ; preds = %76
  %78 = load i32, i32* %8, align 4
  %79 = add nsw i32 %78, 1
  store i32 %79, i32* %8, align 4
  br label %13

80:                                               ; preds = %13
  ret i32 0
}

declare dso_local i32 @__isoc99_scanf(i8*, ...) #1

; Function Attrs: nounwind readonly
declare dso_local i64 @strlen(i8*) #2

declare dso_local i32 @printf(i8*, ...) #1


!llvm.module.flags = !{!0}
!llvm.ident = !{!1}

!0 = !{i32 1, !"wchar_size", i32 4}
!1 = !{!"clang version 10.0.0-4ubuntu1 "}
