; ModuleID = 'source-C-CXX/32/2742.c'
source_filename = "source-C-CXX/32/2742.c"
target datalayout = "e-m:e-p270:32:32-p271:32:32-p272:64:64-i64:64-f80:128-n8:16:32:64-S128"
target triple = "x86_64-pc-linux-gnu"

@.str = private unnamed_addr constant [3 x i8] c"%d\00", align 1
@.str.1 = private unnamed_addr constant [3 x i8] c"%s\00", align 1
@.str.3 = private unnamed_addr constant [4 x i8] c"%c\0A\00", align 1

; Function Attrs: nofree nounwind sspstrong uwtable
define dso_local i32 @main(i32 %0, i8** nocapture readnone %1) local_unnamed_addr #0 {
  %3 = alloca i32, align 4
  %4 = alloca [256 x i8], align 16
  %5 = bitcast i32* %3 to i8*
  call void @llvm.lifetime.start.p0i8(i64 4, i8* nonnull %5) #5
  %6 = getelementptr inbounds [256 x i8], [256 x i8]* %4, i64 0, i64 0
  call void @llvm.lifetime.start.p0i8(i64 256, i8* nonnull %6) #5
  %7 = call i32 (i8*, ...) @__isoc99_scanf(i8* getelementptr inbounds ([3 x i8], [3 x i8]* @.str, i64 0, i64 0), i32* nonnull %3)
  %8 = load i32, i32* %3, align 4, !tbaa !5
  %9 = icmp sgt i32 %8, 0
  br i1 %9, label %10, label %49

10:                                               ; preds = %2, %44
  %11 = phi i8 [ %45, %44 ], [ undef, %2 ]
  %12 = phi i32 [ %46, %44 ], [ 0, %2 ]
  %13 = call i32 (i8*, ...) @__isoc99_scanf(i8* getelementptr inbounds ([3 x i8], [3 x i8]* @.str.1, i64 0, i64 0), i8* nonnull %6)
  %14 = call i64 @strlen(i8* noundef nonnull %6) #6
  %15 = trunc i64 %14 to i32
  %16 = icmp sgt i32 %15, 0
  br i1 %16, label %17, label %44

17:                                               ; preds = %10
  %18 = shl i64 %14, 32
  %19 = add i64 %18, -4294967296
  %20 = ashr exact i64 %19, 32
  %21 = and i64 %14, 4294967295
  br label %22

22:                                               ; preds = %17, %41
  %23 = phi i64 [ 0, %17 ], [ %42, %41 ]
  %24 = phi i8 [ %11, %17 ], [ %34, %41 ]
  %25 = getelementptr inbounds [256 x i8], [256 x i8]* %4, i64 0, i64 %23
  %26 = load i8, i8* %25, align 1, !tbaa !9
  %27 = icmp eq i8 %26, 65
  %28 = select i1 %27, i8 84, i8 %24
  %29 = icmp eq i8 %26, 84
  %30 = select i1 %29, i8 65, i8 %28
  %31 = icmp eq i8 %26, 67
  %32 = select i1 %31, i8 71, i8 %30
  %33 = icmp eq i8 %26, 71
  %34 = select i1 %33, i8 67, i8 %32
  %35 = icmp slt i64 %23, %20
  %36 = sext i8 %34 to i32
  br i1 %35, label %37, label %39

37:                                               ; preds = %22
  %38 = call i32 @putchar(i32 %36)
  br label %41

39:                                               ; preds = %22
  %40 = call i32 (i8*, ...) @printf(i8* nonnull dereferenceable(1) getelementptr inbounds ([4 x i8], [4 x i8]* @.str.3, i64 0, i64 0), i32 %36)
  br label %41

41:                                               ; preds = %37, %39
  %42 = add nuw nsw i64 %23, 1
  %43 = icmp eq i64 %42, %21
  br i1 %43, label %44, label %22, !llvm.loop !10

44:                                               ; preds = %41, %10
  %45 = phi i8 [ %11, %10 ], [ %34, %41 ]
  %46 = add nuw nsw i32 %12, 1
  %47 = load i32, i32* %3, align 4, !tbaa !5
  %48 = icmp slt i32 %46, %47
  br i1 %48, label %10, label %49, !llvm.loop !12

49:                                               ; preds = %44, %2
  call void @llvm.lifetime.end.p0i8(i64 256, i8* nonnull %6) #5
  call void @llvm.lifetime.end.p0i8(i64 4, i8* nonnull %5) #5
  ret i32 0
}

; Function Attrs: argmemonly mustprogress nofree nosync nounwind willreturn
declare void @llvm.lifetime.start.p0i8(i64 immarg, i8* nocapture) #1

; Function Attrs: nofree nounwind
declare noundef i32 @__isoc99_scanf(i8* nocapture noundef readonly, ...) local_unnamed_addr #2

; Function Attrs: argmemonly mustprogress nofree nounwind readonly willreturn
declare i64 @strlen(i8* nocapture) local_unnamed_addr #3

; Function Attrs: nofree nounwind
declare noundef i32 @printf(i8* nocapture noundef readonly, ...) local_unnamed_addr #2

; Function Attrs: argmemonly mustprogress nofree nosync nounwind willreturn
declare void @llvm.lifetime.end.p0i8(i64 immarg, i8* nocapture) #1

; Function Attrs: nofree nounwind
declare noundef i32 @putchar(i32 noundef) local_unnamed_addr #4


!llvm.module.flags = !{!0, !1, !2, !3}
!llvm.ident = !{!4}

!0 = !{i32 1, !"wchar_size", i32 4}
!1 = !{i32 7, !"PIC Level", i32 2}
!2 = !{i32 7, !"PIE Level", i32 2}
!3 = !{i32 7, !"uwtable", i32 1}
!4 = !{!"clang version 13.0.0"}
!5 = !{!6, !6, i64 0}
!6 = !{!"int", !7, i64 0}
!7 = !{!"omnipotent char", !8, i64 0}
!8 = !{!"Simple C/C++ TBAA"}
!9 = !{!7, !7, i64 0}
!10 = distinct !{!10, !11}
!11 = !{!"llvm.loop.mustprogress"}
!12 = distinct !{!12, !11}
